target datalayout = "e-m:e-p270:32:32-p271:32:32-p272:64:64-i64:64-i128:128-f80:128-n8:16:32:64-S128"
target triple = "x86_64-pc-linux-gnu"

%struct.Header = type { ptr, i32, i32 }

@.str.64 = private unnamed_addr constant [35 x i8] c"invalid next option for option 'X'\00", align 1
@.str.65 = private unnamed_addr constant [41 x i8] c"format asks for alignment not power of 2\00", align 1

; Function Attrs: nounwind uwtable
define internal i32 @getdetails(ptr noundef %0, i64 noundef %1, ptr noundef %2, ptr noundef %3, ptr noundef %4) #0 {
  %6 = alloca ptr, align 8
  %7 = alloca i64, align 8
  %8 = alloca ptr, align 8
  %9 = alloca ptr, align 8
  %10 = alloca ptr, align 8
  %11 = alloca i32, align 4
  %12 = alloca i64, align 8
  %13 = alloca i32, align 4
  store ptr %0, ptr %6, align 8, !tbaa !65
  store i64 %1, ptr %7, align 8, !tbaa !13
  store ptr %2, ptr %8, align 8, !tbaa !57
  store ptr %3, ptr %9, align 8, !tbaa !69
  store ptr %4, ptr %10, align 8, !tbaa !35
  call void @llvm.lifetime.start.p0(i64 4, ptr %11) #11
  %14 = load ptr, ptr %6, align 8, !tbaa !65
  %15 = load ptr, ptr %8, align 8, !tbaa !57
  %16 = load ptr, ptr %9, align 8, !tbaa !69
  %17 = call i32 @getoption(ptr noundef %14, ptr noundef %15, ptr noundef %16)
  store i32 %17, ptr %11, align 4, !tbaa !15
  call void @llvm.lifetime.start.p0(i64 8, ptr %12) #11
  %18 = load ptr, ptr %9, align 8, !tbaa !69
  %19 = load i64, ptr %18, align 8, !tbaa !13
  store i64 %19, ptr %12, align 8, !tbaa !13
  %20 = load i32, ptr %11, align 4, !tbaa !15
  %21 = icmp eq i32 %20, 9
  br i1 %21, label %22, label %42

22:                                               ; preds = %5
  %23 = load ptr, ptr %8, align 8, !tbaa !57
  %24 = load ptr, ptr %23, align 8, !tbaa !9
  %25 = load i8, ptr %24, align 1, !tbaa !17
  %26 = sext i8 %25 to i32
  %27 = icmp eq i32 %26, 0
  br i1 %27, label %36, label %28

28:                                               ; preds = %22
  %29 = load ptr, ptr %6, align 8, !tbaa !65
  %30 = load ptr, ptr %8, align 8, !tbaa !57
  %31 = call i32 @getoption(ptr noundef %29, ptr noundef %30, ptr noundef %12)
  %32 = icmp eq i32 %31, 5
  br i1 %32, label %36, label %33

33:                                               ; preds = %28
  %34 = load i64, ptr %12, align 8, !tbaa !13
  %35 = icmp eq i64 %34, 0
  br i1 %35, label %36, label %41

36:                                               ; preds = %33, %28, %22
  %37 = load ptr, ptr %6, align 8, !tbaa !65
  %38 = getelementptr inbounds nuw %struct.Header, ptr %37, i32 0, i32 0
  %39 = load ptr, ptr %38, align 8, !tbaa !67
  %40 = call i32 @luaL_argerror(ptr noundef %39, i32 noundef 1, ptr noundef @.str.64)
  br label %41

41:                                               ; preds = %36, %33
  br label %42

42:                                               ; preds = %41, %5
  %43 = load i64, ptr %12, align 8, !tbaa !13
  %44 = icmp ule i64 %43, 1
  br i1 %44, label %48, label %45

45:                                               ; preds = %42
  %46 = load i32, ptr %11, align 4, !tbaa !15
  %47 = icmp eq i32 %46, 5
  br i1 %47, label %48, label %50

48:                                               ; preds = %45, %42
  %49 = load ptr, ptr %10, align 8, !tbaa !35
  store i32 0, ptr %49, align 4, !tbaa !15
  br label %96

50:                                               ; preds = %45
  %51 = load i64, ptr %12, align 8, !tbaa !13
  %52 = load ptr, ptr %6, align 8, !tbaa !65
  %53 = getelementptr inbounds nuw %struct.Header, ptr %52, i32 0, i32 2
  %54 = load i32, ptr %53, align 4, !tbaa !68
  %55 = zext i32 %54 to i64
  %56 = icmp ugt i64 %51, %55
  br i1 %56, label %57, label %62

57:                                               ; preds = %50
  %58 = load ptr, ptr %6, align 8, !tbaa !65
  %59 = getelementptr inbounds nuw %struct.Header, ptr %58, i32 0, i32 2
  %60 = load i32, ptr %59, align 4, !tbaa !68
  %61 = zext i32 %60 to i64
  store i64 %61, ptr %12, align 8, !tbaa !13
  br label %62

62:                                               ; preds = %57, %50
  %63 = load i64, ptr %12, align 8, !tbaa !13
  %64 = load i64, ptr %12, align 8, !tbaa !13
  %65 = sub i64 %64, 1
  %66 = and i64 %63, %65
  %67 = icmp eq i64 %66, 0
  %68 = xor i1 %67, true
  %69 = zext i1 %68 to i32
  %70 = icmp ne i32 %69, 0
  %71 = zext i1 %70 to i32
  %72 = sext i32 %71 to i64
  %73 = call i64 @llvm.expect.i64(i64 %72, i64 0)
  %74 = icmp ne i64 %73, 0
  br i1 %74, label %75, label %80

75:                                               ; preds = %62
  %76 = load ptr, ptr %6, align 8, !tbaa !65
  %77 = getelementptr inbounds nuw %struct.Header, ptr %76, i32 0, i32 0
  %78 = load ptr, ptr %77, align 8, !tbaa !67
  %79 = call i32 @luaL_argerror(ptr noundef %78, i32 noundef 1, ptr noundef @.str.65)
  br label %95

80:                                               ; preds = %62
  call void @llvm.lifetime.start.p0(i64 4, ptr %13) #11
  %81 = load i64, ptr %7, align 8, !tbaa !13
  %82 = load i64, ptr %12, align 8, !tbaa !13
  %83 = sub i64 %82, 1
  %84 = and i64 %81, %83
  %85 = trunc i64 %84 to i32
  store i32 %85, ptr %13, align 4, !tbaa !15
  %86 = load i64, ptr %12, align 8, !tbaa !13
  %87 = load i32, ptr %13, align 4, !tbaa !15
  %88 = zext i32 %87 to i64
  %89 = sub i64 %86, %88
  %90 = load i64, ptr %12, align 8, !tbaa !13
  %91 = sub i64 %90, 1
  %92 = and i64 %89, %91
  %93 = trunc i64 %92 to i32
  %94 = load ptr, ptr %10, align 8, !tbaa !35
  store i32 %93, ptr %94, align 4, !tbaa !15
  call void @llvm.lifetime.end.p0(i64 4, ptr %13) #11
  br label %95

95:                                               ; preds = %80, %75
  br label %96

96:                                               ; preds = %95, %48
  %97 = load i32, ptr %11, align 4, !tbaa !15
  call void @llvm.lifetime.end.p0(i64 8, ptr %12) #11
  call void @llvm.lifetime.end.p0(i64 4, ptr %11) #11
  ret i32 %97
}