; Function Attrs: nounwind uwtable
define internal fastcc range(i32 0, 11) i32 @getdetails(ptr noundef nonnull captures(none) %0, i64 noundef %1, ptr noundef nonnull captures(none) %2, ptr noundef nonnull captures(none) initializes((0, 8)) %3, ptr noundef nonnull writeonly captures(none) %4) unnamed_addr #0 {
  %6 = alloca i64, align 8
  %7 = tail call fastcc i32 @getoption(ptr noundef %0, ptr noundef %2, ptr noundef %3)
  call void @llvm.lifetime.start.p0(i64 8, ptr nonnull %6) #12
  %8 = load i64, ptr %3, align 8, !tbaa !4
  %9 = icmp eq i32 %7, 9
  br i1 %9, label %10, label %23

10:                                               ; preds = %5
  %11 = load ptr, ptr %2, align 8, !tbaa !45
  %12 = load i8, ptr %11, align 1, !tbaa !9
  %13 = icmp eq i8 %12, 0
  br i1 %13, label %19, label %14

14:                                               ; preds = %10
  %15 = call fastcc i32 @getoption(ptr noundef %0, ptr noundef %2, ptr noundef %6)
  %16 = icmp eq i32 %15, 5
  %17 = load i64, ptr %6, align 8
  %18 = icmp eq i64 %17, 0
  %or.cond = select i1 %16, i1 true, i1 %18
  br i1 %or.cond, label %19, label %23

19:                                               ; preds = %14, %10
  %20 = phi i64 [ %17, %14 ], [ %8, %10 ]
  %21 = load ptr, ptr %0, align 8, !tbaa !46
  %22 = tail call i32 @luaL_argerror(ptr noundef %21, i32 noundef 1, ptr noundef nonnull @.str.64) #12
  br label %23

23:                                               ; preds = %19, %14, %5
  %24 = phi i64 [ %20, %19 ], [ %17, %14 ], [ %8, %5 ]
  %25 = icmp ult i64 %24, 2
  %26 = icmp eq i32 %7, 5
  %or.cond3 = or i1 %26, %25
  br i1 %or.cond3, label %27, label %28

27:                                               ; preds = %23
  store i32 0, ptr %4, align 4, !tbaa !44
  br label %43

28:                                               ; preds = %23
  %29 = getelementptr inbounds nuw i8, ptr %0, i64 12
  %30 = load i32, ptr %29, align 4, !tbaa !49
  %31 = zext i32 %30 to i64
  %spec.select = tail call i64 @llvm.umin.i64(i64 %24, i64 %31)
  %32 = tail call range(i64 0, 33) i64 @llvm.ctpop.i64(i64 %spec.select)
  %33 = icmp samesign ugt i64 %32, 1
  br i1 %33, label %34, label %37, !prof !8

34:                                               ; preds = %28
  %35 = load ptr, ptr %0, align 8, !tbaa !46
  %36 = tail call i32 @luaL_argerror(ptr noundef %35, i32 noundef 1, ptr noundef nonnull @.str.65) #12
  br label %43

37:                                               ; preds = %28
  %38 = add nsw i64 %spec.select, -1
  %39 = and i64 %38, %1
  %40 = sub i64 %spec.select, %39
  %41 = and i64 %40, %38
  %42 = trunc i64 %41 to i32
  store i32 %42, ptr %4, align 4, !tbaa !44
  br label %43

43:                                               ; preds = %34, %37, %27
  call void @llvm.lifetime.end.p0(i64 8, ptr nonnull %6) #12
  ret i32 %7
}